; ModuleID = '12/282.cpp'
source_filename = "12/282.cpp"
target datalayout = "e-m:e-p270:32:32-p271:32:32-p272:64:64-i64:64-f80:128-n8:16:32:64-S128"
target triple = "x86_64-pc-linux-gnu"

%"class.std::ios_base::Init" = type { i8 }
%"class.std::basic_istream" = type { i32 (...)**, i64, %"class.std::basic_ios" }
%"class.std::basic_ios" = type { %"class.std::ios_base", %"class.std::basic_ostream"*, i8, i8, %"class.std::basic_streambuf"*, %"class.std::ctype"*, %"class.std::num_put"*, %"class.std::num_get"* }
%"class.std::ios_base" = type { i32 (...)**, i64, i64, i32, i32, i32, %"struct.std::ios_base::_Callback_list"*, %"struct.std::ios_base::_Words", [8 x %"struct.std::ios_base::_Words"], i32, %"struct.std::ios_base::_Words"*, %"class.std::locale" }
%"struct.std::ios_base::_Callback_list" = type { %"struct.std::ios_base::_Callback_list"*, void (i32, %"class.std::ios_base"*, i32)*, i32, i32 }
%"struct.std::ios_base::_Words" = type { i8*, i64 }
%"class.std::locale" = type { %"class.std::locale::_Impl"* }
%"class.std::locale::_Impl" = type { i32, %"class.std::locale::facet"**, i64, %"class.std::locale::facet"**, i8** }
%"class.std::locale::facet" = type <{ i32 (...)**, i32, [4 x i8] }>
%"class.std::basic_ostream" = type { i32 (...)**, %"class.std::basic_ios" }
%"class.std::basic_streambuf" = type { i32 (...)**, i8*, i8*, i8*, i8*, i8*, i8*, %"class.std::locale" }
%"class.std::ctype" = type <{ %"class.std::locale::facet.base", [4 x i8], %struct.__locale_struct*, i8, [7 x i8], i32*, i32*, i16*, i8, [256 x i8], [256 x i8], i8, [6 x i8] }>
%"class.std::locale::facet.base" = type <{ i32 (...)**, i32 }>
%struct.__locale_struct = type { [13 x %struct.__locale_data*], i16*, i32*, i32*, [13 x i8*] }
%struct.__locale_data = type opaque
%"class.std::num_put" = type { %"class.std::locale::facet.base", [4 x i8] }
%"class.std::num_get" = type { %"class.std::locale::facet.base", [4 x i8] }

@_ZStL8__ioinit = internal global %"class.std::ios_base::Init" zeroinitializer, align 1
@__dso_handle = external hidden global i8
@_ZSt3cin = external dso_local global %"class.std::basic_istream", align 8
@_ZSt4cout = external dso_local global %"class.std::basic_ostream", align 8
@llvm.global_ctors = appending global [1 x { i32, void ()*, i8* }] [{ i32, void ()*, i8* } { i32 65535, void ()* @_GLOBAL__sub_I_282.cpp, i8* null }]

; Function Attrs: noinline uwtable
define internal void @__cxx_global_var_init() #0 section ".text.startup" {
  call void @_ZNSt8ios_base4InitC1Ev(%"class.std::ios_base::Init"* @_ZStL8__ioinit)
  %1 = call i32 @__cxa_atexit(void (i8*)* bitcast (void (%"class.std::ios_base::Init"*)* @_ZNSt8ios_base4InitD1Ev to void (i8*)*), i8* getelementptr inbounds (%"class.std::ios_base::Init", %"class.std::ios_base::Init"* @_ZStL8__ioinit, i32 0, i32 0), i8* @__dso_handle) #3
  ret void
}

declare dso_local void @_ZNSt8ios_base4InitC1Ev(%"class.std::ios_base::Init"*) unnamed_addr #1

; Function Attrs: nounwind
declare dso_local void @_ZNSt8ios_base4InitD1Ev(%"class.std::ios_base::Init"*) unnamed_addr #2

; Function Attrs: nounwind
declare dso_local i32 @__cxa_atexit(void (i8*)*, i8*, i8*) #3

; Function Attrs: noinline norecurse uwtable
define dso_local i32 @main() #4 {
  %1 = alloca i32, align 4
  %2 = alloca [15 x i32], align 16
  %3 = alloca i32, align 4
  %4 = alloca i32, align 4
  %5 = alloca i32, align 4
  %6 = alloca i32, align 4
  %7 = alloca i32, align 4
  store i32 0, i32* %1, align 4
  %8 = bitcast [15 x i32]* %2 to i8*
  call void @llvm.memset.p0i8.i64(i8* align 16 %8, i8 0, i64 60, i1 false)
  store i32 0, i32* %6, align 4
  br label %9

9:                                                ; preds = %103, %0
  store i32 0, i32* %7, align 4
  br label %10

10:                                               ; preds = %24, %9
  %11 = call dereferenceable(280) %"class.std::basic_istream"* @_ZNSirsERi(%"class.std::basic_istream"* @_ZSt3cin, i32* dereferenceable(4) %5)
  %12 = load i32, i32* %5, align 4
  %13 = load i32, i32* %7, align 4
  %14 = sext i32 %13 to i64
  %15 = getelementptr inbounds [15 x i32], [15 x i32]* %2, i64 0, i64 %14
  store i32 %12, i32* %15, align 4
  %16 = load i32, i32* %5, align 4
  %17 = icmp eq i32 %16, 0
  br i1 %17, label %18, label %19

18:                                               ; preds = %10
  br label %27

19:                                               ; preds = %10
  %20 = load i32, i32* %5, align 4
  %21 = icmp eq i32 %20, -1
  br i1 %21, label %22, label %23

22:                                               ; preds = %19
  br label %27

23:                                               ; preds = %19
  br label %24

24:                                               ; preds = %23
  %25 = load i32, i32* %7, align 4
  %26 = add nsw i32 %25, 1
  store i32 %26, i32* %7, align 4
  br label %10

27:                                               ; preds = %22, %18
  store i32 0, i32* %3, align 4
  br label %28

28:                                               ; preds = %91, %27
  %29 = load i32, i32* %3, align 4
  %30 = load i32, i32* %7, align 4
  %31 = icmp sle i32 %29, %30
  br i1 %31, label %32, label %94

32:                                               ; preds = %28
  store i32 0, i32* %4, align 4
  br label %33

33:                                               ; preds = %87, %32
  %34 = load i32, i32* %4, align 4
  %35 = load i32, i32* %7, align 4
  %36 = icmp sle i32 %34, %35
  br i1 %36, label %37, label %90

37:                                               ; preds = %33
  %38 = load i32, i32* %3, align 4
  %39 = sext i32 %38 to i64
  %40 = getelementptr inbounds [15 x i32], [15 x i32]* %2, i64 0, i64 %39
  %41 = load i32, i32* %40, align 4
  %42 = icmp ne i32 %41, 0
  br i1 %42, label %43, label %60

43:                                               ; preds = %37
  %44 = load i32, i32* %4, align 4
  %45 = sext i32 %44 to i64
  %46 = getelementptr inbounds [15 x i32], [15 x i32]* %2, i64 0, i64 %45
  %47 = load i32, i32* %46, align 4
  %48 = icmp ne i32 %47, 0
  br i1 %48, label %49, label %60

49:                                               ; preds = %43
  %50 = load i32, i32* %3, align 4
  %51 = sext i32 %50 to i64
  %52 = getelementptr inbounds [15 x i32], [15 x i32]* %2, i64 0, i64 %51
  %53 = load i32, i32* %52, align 4
  %54 = mul nsw i32 %53, 2
  %55 = load i32, i32* %4, align 4
  %56 = sext i32 %55 to i64
  %57 = getelementptr inbounds [15 x i32], [15 x i32]* %2, i64 0, i64 %56
  %58 = load i32, i32* %57, align 4
  %59 = icmp eq i32 %54, %58
  br i1 %59, label %83, label %60

60:                                               ; preds = %49, %43, %37
  %61 = load i32, i32* %3, align 4
  %62 = sext i32 %61 to i64
  %63 = getelementptr inbounds [15 x i32], [15 x i32]* %2, i64 0, i64 %62
  %64 = load i32, i32* %63, align 4
  %65 = icmp ne i32 %64, 0
  br i1 %65, label %66, label %86

66:                                               ; preds = %60
  %67 = load i32, i32* %4, align 4
  %68 = sext i32 %67 to i64
  %69 = getelementptr inbounds [15 x i32], [15 x i32]* %2, i64 0, i64 %68
  %70 = load i32, i32* %69, align 4
  %71 = icmp ne i32 %70, 0
  br i1 %71, label %72, label %86

72:                                               ; preds = %66
  %73 = load i32, i32* %4, align 4
  %74 = sext i32 %73 to i64
  %75 = getelementptr inbounds [15 x i32], [15 x i32]* %2, i64 0, i64 %74
  %76 = load i32, i32* %75, align 4
  %77 = mul nsw i32 %76, 2
  %78 = load i32, i32* %3, align 4
  %79 = sext i32 %78 to i64
  %80 = getelementptr inbounds [15 x i32], [15 x i32]* %2, i64 0, i64 %79
  %81 = load i32, i32* %80, align 4
  %82 = icmp eq i32 %77, %81
  br i1 %82, label %83, label %86

83:                                               ; preds = %72, %49
  %84 = load i32, i32* %6, align 4
  %85 = add nsw i32 %84, 1
  store i32 %85, i32* %6, align 4
  br label %86

86:                                               ; preds = %83, %72, %66, %60
  br label %87

87:                                               ; preds = %86
  %88 = load i32, i32* %4, align 4
  %89 = add nsw i32 %88, 1
  store i32 %89, i32* %4, align 4
  br label %33

90:                                               ; preds = %33
  br label %91

91:                                               ; preds = %90
  %92 = load i32, i32* %3, align 4
  %93 = add nsw i32 %92, 1
  store i32 %93, i32* %3, align 4
  br label %28

94:                                               ; preds = %28
  %95 = load i32, i32* %5, align 4
  %96 = icmp ne i32 %95, -1
  br i1 %96, label %97, label %102

97:                                               ; preds = %94
  %98 = load i32, i32* %6, align 4
  %99 = sdiv i32 %98, 2
  %100 = call dereferenceable(272) %"class.std::basic_ostream"* @_ZNSolsEi(%"class.std::basic_ostream"* @_ZSt4cout, i32 %99)
  %101 = call dereferenceable(272) %"class.std::basic_ostream"* @_ZNSolsEPFRSoS_E(%"class.std::basic_ostream"* %100, %"class.std::basic_ostream"* (%"class.std::basic_ostream"*)* @_ZSt4endlIcSt11char_traitsIcEERSt13basic_ostreamIT_T0_ES6_)
  store i32 0, i32* %6, align 4
  br label %102

102:                                              ; preds = %97, %94
  br label %103

103:                                              ; preds = %102
  %104 = load i32, i32* %5, align 4
  %105 = icmp ne i32 %104, -1
  br i1 %105, label %9, label %106

106:                                              ; preds = %103
  ret i32 0
}

; Function Attrs: argmemonly nounwind willreturn
declare void @llvm.memset.p0i8.i64(i8* nocapture writeonly, i8, i64, i1 immarg) #5

declare dso_local dereferenceable(280) %"class.std::basic_istream"* @_ZNSirsERi(%"class.std::basic_istream"*, i32* dereferenceable(4)) #1

declare dso_local dereferenceable(272) %"class.std::basic_ostream"* @_ZNSolsEi(%"class.std::basic_ostream"*, i32) #1

declare dso_local dereferenceable(272) %"class.std::basic_ostream"* @_ZNSolsEPFRSoS_E(%"class.std::basic_ostream"*, %"class.std::basic_ostream"* (%"class.std::basic_ostream"*)*) #1

declare dso_local dereferenceable(272) %"class.std::basic_ostream"* @_ZSt4endlIcSt11char_traitsIcEERSt13basic_ostreamIT_T0_ES6_(%"class.std::basic_ostream"* dereferenceable(272)) #1

; Function Attrs: noinline uwtable
define internal void @_GLOBAL__sub_I_282.cpp() #0 section ".text.startup" {
  call void @__cxx_global_var_init()
  ret void
}


!llvm.module.flags = !{!0}
!llvm.ident = !{!1}

!0 = !{i32 1, !"wchar_size", i32 4}
!1 = !{!"clang version 10.0.0-4ubuntu1 "}
