; ModuleID = 'source-C-CXX/11/282.cpp'
source_filename = "source-C-CXX/11/282.cpp"
target datalayout = "e-m:e-p270:32:32-p271:32:32-p272:64:64-i64:64-f80:128-n8:16:32:64-S128"
target triple = "x86_64-pc-linux-gnu"

%"class.std::ios_base::Init" = type { i8 }
%"class.std::basic_istream" = type { i32 (...)**, i64, %"class.std::basic_ios" }
%"class.std::basic_ios" = type { %"class.std::ios_base", %"class.std::basic_ostream"*, i8, i8, %"class.std::basic_streambuf"*, %"class.std::ctype"*, %"class.std::num_put"*, %"class.std::num_get"* }
%"class.std::ios_base" = type { i32 (...)**, i64, i64, i32, i32, i32, %"struct.std::ios_base::_Callback_list"*, %"struct.std::ios_base::_Words", [8 x %"struct.std::ios_base::_Words"], i32, %"struct.std::ios_base::_Words"*, %"class.std::locale" }
%"struct.std::ios_base::_Callback_list" = type { %"struct.std::ios_base::_Callback_list"*, void (i32, %"class.std::ios_base"*, i32)*, i32, i32 }
%"struct.std::ios_base::_Words" = type { i8*, i64 }
%"class.std::locale" = type { %"class.std::locale::_Impl"* }
%"class.std::locale::_Impl" = type { i32, %"class.std::locale::facet"**, i64, %"class.std::locale::facet"**, i8** }
%"class.std::locale::facet" = type <{ i32 (...)**, i32, [4 x i8] }>
%"class.std::basic_ostream" = type { i32 (...)**, %"class.std::basic_ios" }
%"class.std::basic_streambuf" = type { i32 (...)**, i8*, i8*, i8*, i8*, i8*, i8*, %"class.std::locale" }
%"class.std::ctype" = type <{ %"class.std::locale::facet.base", [4 x i8], %struct.__locale_struct*, i8, [7 x i8], i32*, i32*, i16*, i8, [256 x i8], [256 x i8], i8, [6 x i8] }>
%"class.std::locale::facet.base" = type <{ i32 (...)**, i32 }>
%struct.__locale_struct = type { [13 x %struct.__locale_data*], i16*, i32*, i32*, [13 x i8*] }
%struct.__locale_data = type opaque
%"class.std::num_put" = type { %"class.std::locale::facet.base", [4 x i8] }
%"class.std::num_get" = type { %"class.std::locale::facet.base", [4 x i8] }

@_ZStL8__ioinit = internal global %"class.std::ios_base::Init" zeroinitializer, align 1
@__dso_handle = external hidden global i8
@_ZSt3cin = external global %"class.std::basic_istream", align 8
@_ZSt4cout = external global %"class.std::basic_ostream", align 8
@llvm.global_ctors = appending global [1 x { i32, void ()*, i8* }] [{ i32, void ()*, i8* } { i32 65535, void ()* @_GLOBAL__sub_I_282.cpp, i8* null }]

declare void @_ZNSt8ios_base4InitC1Ev(%"class.std::ios_base::Init"* nonnull align 1 dereferenceable(1)) unnamed_addr #0

; Function Attrs: nounwind
declare void @_ZNSt8ios_base4InitD1Ev(%"class.std::ios_base::Init"* nonnull align 1 dereferenceable(1)) unnamed_addr #1

; Function Attrs: nofree nounwind
declare i32 @__cxa_atexit(void (i8*)*, i8*, i8*) local_unnamed_addr #2

; Function Attrs: mustprogress norecurse sspstrong uwtable
define dso_local i32 @main() local_unnamed_addr #3 {
  %1 = alloca [15 x i32], align 16
  %2 = alloca i32, align 4
  %3 = bitcast [15 x i32]* %1 to i8*
  call void @llvm.lifetime.start.p0i8(i64 60, i8* nonnull %3) #9
  call void @llvm.memset.p0i8.i64(i8* noundef nonnull align 16 dereferenceable(60) %3, i8 0, i64 60, i1 false)
  %4 = bitcast i32* %2 to i8*
  call void @llvm.lifetime.start.p0i8(i64 4, i8* nonnull %4) #9
  br label %5

5:                                                ; preds = %13, %0
  %6 = phi i64 [ 0, %0 ], [ %14, %13 ]
  %7 = call nonnull align 8 dereferenceable(16) %"class.std::basic_istream"* @_ZNSirsERi(%"class.std::basic_istream"* nonnull align 8 dereferenceable(16) @_ZSt3cin, i32* nonnull align 4 dereferenceable(4) %2)
  %8 = load i32, i32* %2, align 4, !tbaa !5
  %9 = getelementptr inbounds [15 x i32], [15 x i32]* %1, i64 0, i64 %6
  store i32 %8, i32* %9, align 4, !tbaa !5
  %10 = add i32 %8, 1
  %11 = icmp ult i32 %10, 2
  %12 = add nuw i64 %6, 1
  br i1 %11, label %15, label %13

13:                                               ; preds = %5, %130
  %14 = phi i64 [ %12, %5 ], [ 0, %130 ]
  br label %5, !llvm.loop !9

15:                                               ; preds = %5
  %16 = add i64 %6, 1
  %17 = and i64 %16, 4294967295
  %18 = icmp ult i64 %17, 8
  %19 = and i64 %16, 7
  %20 = sub nsw i64 %17, %19
  %21 = icmp eq i64 %19, 0
  br label %22

22:                                               ; preds = %15, %96
  %23 = phi i64 [ 0, %15 ], [ %98, %96 ]
  %24 = phi i32 [ 0, %15 ], [ %97, %96 ]
  %25 = getelementptr inbounds [15 x i32], [15 x i32]* %1, i64 0, i64 %23
  %26 = load i32, i32* %25, align 4, !tbaa !5
  %27 = icmp eq i32 %26, 0
  %28 = shl nsw i32 %26, 1
  br i1 %27, label %96, label %29

29:                                               ; preds = %22
  br i1 %18, label %75, label %30

30:                                               ; preds = %29
  %31 = insertelement <4 x i32> <i32 poison, i32 0, i32 0, i32 0>, i32 %24, i32 0
  %32 = insertelement <4 x i32> poison, i32 %28, i32 0
  %33 = shufflevector <4 x i32> %32, <4 x i32> poison, <4 x i32> zeroinitializer
  %34 = insertelement <4 x i32> poison, i32 %28, i32 0
  %35 = shufflevector <4 x i32> %34, <4 x i32> poison, <4 x i32> zeroinitializer
  %36 = insertelement <4 x i32> poison, i32 %26, i32 0
  %37 = shufflevector <4 x i32> %36, <4 x i32> poison, <4 x i32> zeroinitializer
  %38 = insertelement <4 x i32> poison, i32 %26, i32 0
  %39 = shufflevector <4 x i32> %38, <4 x i32> poison, <4 x i32> zeroinitializer
  br label %40

40:                                               ; preds = %40, %30
  %41 = phi i64 [ 0, %30 ], [ %70, %40 ]
  %42 = phi <4 x i32> [ %31, %30 ], [ %66, %40 ]
  %43 = phi <4 x i32> [ zeroinitializer, %30 ], [ %69, %40 ]
  %44 = getelementptr inbounds [15 x i32], [15 x i32]* %1, i64 0, i64 %41
  %45 = bitcast i32* %44 to <4 x i32>*
  %46 = load <4 x i32>, <4 x i32>* %45, align 16, !tbaa !5
  %47 = getelementptr inbounds i32, i32* %44, i64 4
  %48 = bitcast i32* %47 to <4 x i32>*
  %49 = load <4 x i32>, <4 x i32>* %48, align 16, !tbaa !5
  %50 = icmp eq <4 x i32> %46, zeroinitializer
  %51 = icmp eq <4 x i32> %49, zeroinitializer
  %52 = icmp ne <4 x i32> %33, %46
  %53 = icmp ne <4 x i32> %35, %49
  %54 = select <4 x i1> %50, <4 x i1> <i1 true, i1 true, i1 true, i1 true>, <4 x i1> %52
  %55 = select <4 x i1> %51, <4 x i1> <i1 true, i1 true, i1 true, i1 true>, <4 x i1> %53
  %56 = shl nsw <4 x i32> %46, <i32 1, i32 1, i32 1, i32 1>
  %57 = shl nsw <4 x i32> %49, <i32 1, i32 1, i32 1, i32 1>
  %58 = icmp ne <4 x i32> %56, %37
  %59 = icmp ne <4 x i32> %57, %39
  %60 = select <4 x i1> %50, <4 x i1> <i1 true, i1 true, i1 true, i1 true>, <4 x i1> %58
  %61 = select <4 x i1> %51, <4 x i1> <i1 true, i1 true, i1 true, i1 true>, <4 x i1> %59
  %62 = select <4 x i1> %54, <4 x i1> %60, <4 x i1> zeroinitializer
  %63 = select <4 x i1> %55, <4 x i1> %61, <4 x i1> zeroinitializer
  %64 = xor <4 x i1> %62, <i1 true, i1 true, i1 true, i1 true>
  %65 = zext <4 x i1> %64 to <4 x i32>
  %66 = add <4 x i32> %42, %65
  %67 = xor <4 x i1> %63, <i1 true, i1 true, i1 true, i1 true>
  %68 = zext <4 x i1> %67 to <4 x i32>
  %69 = add <4 x i32> %43, %68
  %70 = add nuw i64 %41, 8
  %71 = icmp eq i64 %70, %20
  br i1 %71, label %72, label %40, !llvm.loop !11

72:                                               ; preds = %40
  %73 = add <4 x i32> %69, %66
  %74 = call i32 @llvm.vector.reduce.add.v4i32(<4 x i32> %73)
  br i1 %21, label %96, label %75

75:                                               ; preds = %29, %72
  %76 = phi i64 [ 0, %29 ], [ %20, %72 ]
  %77 = phi i32 [ %24, %29 ], [ %74, %72 ]
  br label %78

78:                                               ; preds = %75, %92
  %79 = phi i64 [ %94, %92 ], [ %76, %75 ]
  %80 = phi i32 [ %93, %92 ], [ %77, %75 ]
  %81 = getelementptr inbounds [15 x i32], [15 x i32]* %1, i64 0, i64 %79
  %82 = load i32, i32* %81, align 4, !tbaa !5
  %83 = icmp ne i32 %82, 0
  %84 = icmp eq i32 %28, %82
  %85 = select i1 %83, i1 %84, i1 false
  br i1 %85, label %90, label %86

86:                                               ; preds = %78
  %87 = shl nsw i32 %82, 1
  %88 = icmp eq i32 %87, %26
  %89 = select i1 %83, i1 %88, i1 false
  br i1 %89, label %90, label %92

90:                                               ; preds = %86, %78
  %91 = add nsw i32 %80, 1
  br label %92

92:                                               ; preds = %86, %90
  %93 = phi i32 [ %91, %90 ], [ %80, %86 ]
  %94 = add nuw nsw i64 %79, 1
  %95 = icmp eq i64 %94, %17
  br i1 %95, label %96, label %78, !llvm.loop !13

96:                                               ; preds = %92, %72, %22
  %97 = phi i32 [ %24, %22 ], [ %74, %72 ], [ %93, %92 ]
  %98 = add nuw nsw i64 %23, 1
  %99 = icmp eq i64 %98, %17
  br i1 %99, label %100, label %22, !llvm.loop !15

100:                                              ; preds = %96
  %101 = icmp eq i32 %8, -1
  br i1 %101, label %136, label %102

102:                                              ; preds = %100
  %103 = sdiv i32 %97, 2
  %104 = call nonnull align 8 dereferenceable(8) %"class.std::basic_ostream"* @_ZNSolsEi(%"class.std::basic_ostream"* nonnull align 8 dereferenceable(8) @_ZSt4cout, i32 %103)
  %105 = bitcast %"class.std::basic_ostream"* %104 to i8**
  %106 = load i8*, i8** %105, align 8, !tbaa !16
  %107 = getelementptr i8, i8* %106, i64 -24
  %108 = bitcast i8* %107 to i64*
  %109 = load i64, i64* %108, align 8
  %110 = bitcast %"class.std::basic_ostream"* %104 to i8*
  %111 = add nsw i64 %109, 240
  %112 = getelementptr inbounds i8, i8* %110, i64 %111
  %113 = bitcast i8* %112 to %"class.std::ctype"**
  %114 = load %"class.std::ctype"*, %"class.std::ctype"** %113, align 8, !tbaa !18
  %115 = icmp eq %"class.std::ctype"* %114, null
  br i1 %115, label %116, label %117

116:                                              ; preds = %102
  call void @_ZSt16__throw_bad_castv() #10
  unreachable

117:                                              ; preds = %102
  %118 = getelementptr inbounds %"class.std::ctype", %"class.std::ctype"* %114, i64 0, i32 8
  %119 = load i8, i8* %118, align 8, !tbaa !22
  %120 = icmp eq i8 %119, 0
  br i1 %120, label %124, label %121

121:                                              ; preds = %117
  %122 = getelementptr inbounds %"class.std::ctype", %"class.std::ctype"* %114, i64 0, i32 9, i64 10
  %123 = load i8, i8* %122, align 1, !tbaa !24
  br label %130

124:                                              ; preds = %117
  call void @_ZNKSt5ctypeIcE13_M_widen_initEv(%"class.std::ctype"* nonnull align 8 dereferenceable(570) %114)
  %125 = bitcast %"class.std::ctype"* %114 to i8 (%"class.std::ctype"*, i8)***
  %126 = load i8 (%"class.std::ctype"*, i8)**, i8 (%"class.std::ctype"*, i8)*** %125, align 8, !tbaa !16
  %127 = getelementptr inbounds i8 (%"class.std::ctype"*, i8)*, i8 (%"class.std::ctype"*, i8)** %126, i64 6
  %128 = load i8 (%"class.std::ctype"*, i8)*, i8 (%"class.std::ctype"*, i8)** %127, align 8
  %129 = call signext i8 %128(%"class.std::ctype"* nonnull align 8 dereferenceable(570) %114, i8 signext 10)
  br label %130

130:                                              ; preds = %124, %121
  %131 = phi i8 [ %123, %121 ], [ %129, %124 ]
  %132 = call nonnull align 8 dereferenceable(8) %"class.std::basic_ostream"* @_ZNSo3putEc(%"class.std::basic_ostream"* nonnull align 8 dereferenceable(8) %104, i8 signext %131)
  %133 = call nonnull align 8 dereferenceable(8) %"class.std::basic_ostream"* @_ZNSo5flushEv(%"class.std::basic_ostream"* nonnull align 8 dereferenceable(8) %132)
  %134 = load i32, i32* %2, align 4, !tbaa !5
  %135 = icmp eq i32 %134, -1
  br i1 %135, label %136, label %13

136:                                              ; preds = %100, %130
  call void @llvm.lifetime.end.p0i8(i64 4, i8* nonnull %4) #9
  call void @llvm.lifetime.end.p0i8(i64 60, i8* nonnull %3) #9
  ret i32 0
}

; Function Attrs: argmemonly mustprogress nofree nosync nounwind willreturn
declare void @llvm.lifetime.start.p0i8(i64 immarg, i8* nocapture) #4

; Function Attrs: argmemonly mustprogress nofree nounwind willreturn writeonly
declare void @llvm.memset.p0i8.i64(i8* nocapture writeonly, i8, i64, i1 immarg) #5

declare nonnull align 8 dereferenceable(16) %"class.std::basic_istream"* @_ZNSirsERi(%"class.std::basic_istream"* nonnull align 8 dereferenceable(16), i32* nonnull align 4 dereferenceable(4)) local_unnamed_addr #0

declare nonnull align 8 dereferenceable(8) %"class.std::basic_ostream"* @_ZNSolsEi(%"class.std::basic_ostream"* nonnull align 8 dereferenceable(8), i32) local_unnamed_addr #0

; Function Attrs: argmemonly mustprogress nofree nosync nounwind willreturn
declare void @llvm.lifetime.end.p0i8(i64 immarg, i8* nocapture) #4

declare nonnull align 8 dereferenceable(8) %"class.std::basic_ostream"* @_ZNSo3putEc(%"class.std::basic_ostream"* nonnull align 8 dereferenceable(8), i8 signext) local_unnamed_addr #0

declare nonnull align 8 dereferenceable(8) %"class.std::basic_ostream"* @_ZNSo5flushEv(%"class.std::basic_ostream"* nonnull align 8 dereferenceable(8)) local_unnamed_addr #0

; Function Attrs: noreturn
declare void @_ZSt16__throw_bad_castv() local_unnamed_addr #6

declare void @_ZNKSt5ctypeIcE13_M_widen_initEv(%"class.std::ctype"* nonnull align 8 dereferenceable(570)) local_unnamed_addr #0

; Function Attrs: sspstrong uwtable
define internal void @_GLOBAL__sub_I_282.cpp() #7 section ".text.startup" {
  tail call void @_ZNSt8ios_base4InitC1Ev(%"class.std::ios_base::Init"* nonnull align 1 dereferenceable(1) @_ZStL8__ioinit)
  %1 = tail call i32 @__cxa_atexit(void (i8*)* bitcast (void (%"class.std::ios_base::Init"*)* @_ZNSt8ios_base4InitD1Ev to void (i8*)*), i8* getelementptr inbounds (%"class.std::ios_base::Init", %"class.std::ios_base::Init"* @_ZStL8__ioinit, i64 0, i32 0), i8* nonnull @__dso_handle) #9
  ret void
}

; Function Attrs: nofree nosync nounwind readnone willreturn
declare i32 @llvm.vector.reduce.add.v4i32(<4 x i32>) #8


!llvm.module.flags = !{!0, !1, !2, !3}
!llvm.ident = !{!4}

!0 = !{i32 1, !"wchar_size", i32 4}
!1 = !{i32 7, !"PIC Level", i32 2}
!2 = !{i32 7, !"PIE Level", i32 2}
!3 = !{i32 7, !"uwtable", i32 1}
!4 = !{!"clang version 13.0.0"}
!5 = !{!6, !6, i64 0}
!6 = !{!"int", !7, i64 0}
!7 = !{!"omnipotent char", !8, i64 0}
!8 = !{!"Simple C++ TBAA"}
!9 = distinct !{!9, !10}
!10 = !{!"llvm.loop.mustprogress"}
!11 = distinct !{!11, !10, !12}
!12 = !{!"llvm.loop.isvectorized", i32 1}
!13 = distinct !{!13, !10, !14, !12}
!14 = !{!"llvm.loop.unroll.runtime.disable"}
!15 = distinct !{!15, !10}
!16 = !{!17, !17, i64 0}
!17 = !{!"vtable pointer", !8, i64 0}
!18 = !{!19, !20, i64 240}
!19 = !{!"_ZTSSt9basic_iosIcSt11char_traitsIcEE", !20, i64 216, !7, i64 224, !21, i64 225, !20, i64 232, !20, i64 240, !20, i64 248, !20, i64 256}
!20 = !{!"any pointer", !7, i64 0}
!21 = !{!"bool", !7, i64 0}
!22 = !{!23, !7, i64 56}
!23 = !{!"_ZTSSt5ctypeIcE", !20, i64 16, !21, i64 24, !20, i64 32, !20, i64 40, !20, i64 48, !7, i64 56, !7, i64 57, !7, i64 313, !7, i64 569}
!24 = !{!7, !7, i64 0}
